target datalayout = "e-m:e-p270:32:32-p271:32:32-p272:64:64-i64:64-i128:128-f80:128-n8:16:32:64-S128"
target triple = "x86_64-pc-linux-gnu"

%union.SourceSpan = type { i64 }
%struct.GenContext_ = type { i8, ptr, ptr, ptr, ptr, ptr, ptr, ptr, ptr, ptr, ptr, ptr, ptr, ptr, ptr, ptr, ptr, ptr, ptr, ptr, ptr, ptr, ptr, ptr, ptr, ptr, ptr, ptr, ptr, ptr, ptr, ptr, ptr, %struct.anon.85, i32, i32, %struct.DebugContext, ptr, ptr, ptr, %struct.BEValue, i8, %union.SourceSpan, ptr, ptr, ptr, ptr }
%struct.anon.85 = type { ptr, ptr, ptr }
%struct.DebugContext = type { i16, ptr, ptr, %struct.DebugFile_, ptr, ptr, ptr, ptr }
%struct.DebugFile_ = type { i16, ptr }
%struct.BEValue = type { i8, i32, ptr, ptr, ptr }
%struct.Type_ = type { i32, ptr, ptr, ptr, %union.anon.94, ptr, ptr, %union.anon.96 }
%union.anon.94 = type { ptr }
%union.anon.96 = type { %struct.TypeFunction }
%struct.TypeFunction = type { ptr, ptr, ptr }

@type_uint = external global ptr, align 8
@type_ulong = external global ptr, align 8

; Function Attrs: nounwind uwtable
define dso_local ptr @llvm_emit_memcpy(ptr noundef %0, ptr noundef %1, i32 noundef %2, ptr noundef %3, i32 noundef %4, i64 noundef %5) #0 {
  %7 = alloca ptr, align 8
  %8 = alloca i32, align 4
  %9 = alloca ptr, align 8
  %10 = alloca i32, align 4
  %11 = alloca ptr, align 8
  %12 = alloca ptr, align 8
  %13 = alloca i64, align 8
  %14 = alloca ptr, align 8
  %15 = alloca ptr, align 8
  %16 = alloca i64, align 8
  %17 = alloca ptr, align 8
  %18 = alloca ptr, align 8
  %19 = alloca ptr, align 8
  %20 = alloca i32, align 4
  %21 = alloca ptr, align 8
  %22 = alloca i32, align 4
  %23 = alloca i64, align 8
  store ptr %0, ptr %18, align 8
  store ptr %1, ptr %19, align 8
  store i32 %2, ptr %20, align 4
  store ptr %3, ptr %21, align 8
  store i32 %4, ptr %22, align 4
  store i64 %5, ptr %23, align 8
  %24 = load i64, ptr %23, align 8
  %25 = icmp ule i64 %24, 4294967295
  br i1 %25, label %26, label %64

26:                                               ; preds = %6
  %27 = load ptr, ptr %18, align 8
  %28 = getelementptr inbounds %struct.GenContext_, ptr %27, i32 0, i32 8
  %29 = load ptr, ptr %28, align 8
  %30 = load ptr, ptr %19, align 8
  %31 = load i32, ptr %20, align 4
  %32 = load ptr, ptr %21, align 8
  %33 = load i32, ptr %22, align 4
  %34 = load ptr, ptr %18, align 8
  %35 = load ptr, ptr @type_uint, align 8
  %36 = load i64, ptr %23, align 8
  store ptr %34, ptr %11, align 8
  store ptr %35, ptr %12, align 8
  store i64 %36, ptr %13, align 8
  %37 = load ptr, ptr %12, align 8
  %38 = call ptr @type_lowering(ptr noundef %37)
  store ptr %38, ptr %12, align 8
  %39 = load ptr, ptr %11, align 8
  %40 = load ptr, ptr %12, align 8
  %41 = call ptr @llvm_get_type(ptr noundef %39, ptr noundef %40) #7
  %42 = load i64, ptr %13, align 8
  %43 = load ptr, ptr %12, align 8
  store ptr %43, ptr %9, align 8
  %44 = load ptr, ptr %9, align 8
  %45 = load i32, ptr %44, align 8
  store i32 %45, ptr %10, align 4
  %46 = load i32, ptr %10, align 4
  %47 = icmp eq i32 %46, 31
  br i1 %47, label %48, label %53

48:                                               ; preds = %26
  %49 = load ptr, ptr %9, align 8
  %50 = getelementptr inbounds %struct.Type_, ptr %49, i32 0, i32 1
  %51 = load ptr, ptr %50, align 8
  %52 = load i32, ptr %51, align 8
  store i32 %52, ptr %10, align 4
  br label %53

53:                                               ; preds = %48, %26
  %54 = load i32, ptr %10, align 4
  %55 = icmp uge i32 %54, 3
  br i1 %55, label %56, label %59

56:                                               ; preds = %53
  %57 = load i32, ptr %10, align 4
  %58 = icmp ule i32 %57, 7
  br label %59

59:                                               ; preds = %56, %53
  %60 = phi i1 [ false, %53 ], [ %58, %56 ]
  %61 = zext i1 %60 to i32
  %62 = call ptr @LLVMConstInt(ptr noundef %41, i64 noundef %42, i32 noundef %61) #7
  %63 = call ptr @LLVMBuildMemCpy(ptr noundef %29, ptr noundef %30, i32 noundef %31, ptr noundef %32, i32 noundef %33, ptr noundef %62)
  store ptr %63, ptr %17, align 8
  br label %102

64:                                               ; preds = %6
  %65 = load ptr, ptr %18, align 8
  %66 = getelementptr inbounds %struct.GenContext_, ptr %65, i32 0, i32 8
  %67 = load ptr, ptr %66, align 8
  %68 = load ptr, ptr %19, align 8
  %69 = load i32, ptr %20, align 4
  %70 = load ptr, ptr %21, align 8
  %71 = load i32, ptr %22, align 4
  %72 = load ptr, ptr %18, align 8
  %73 = load ptr, ptr @type_ulong, align 8
  %74 = load i64, ptr %23, align 8
  store ptr %72, ptr %14, align 8
  store ptr %73, ptr %15, align 8
  store i64 %74, ptr %16, align 8
  %75 = load ptr, ptr %15, align 8
  %76 = call ptr @type_lowering(ptr noundef %75)
  store ptr %76, ptr %15, align 8
  %77 = load ptr, ptr %14, align 8
  %78 = load ptr, ptr %15, align 8
  %79 = call ptr @llvm_get_type(ptr noundef %77, ptr noundef %78) #7
  %80 = load i64, ptr %16, align 8
  %81 = load ptr, ptr %15, align 8
  store ptr %81, ptr %7, align 8
  %82 = load ptr, ptr %7, align 8
  %83 = load i32, ptr %82, align 8
  store i32 %83, ptr %8, align 4
  %84 = load i32, ptr %8, align 4
  %85 = icmp eq i32 %84, 31
  br i1 %85, label %86, label %91

86:                                               ; preds = %64
  %87 = load ptr, ptr %7, align 8
  %88 = getelementptr inbounds %struct.Type_, ptr %87, i32 0, i32 1
  %89 = load ptr, ptr %88, align 8
  %90 = load i32, ptr %89, align 8
  store i32 %90, ptr %8, align 4
  br label %91

91:                                               ; preds = %86, %64
  %92 = load i32, ptr %8, align 4
  %93 = icmp uge i32 %92, 3
  br i1 %93, label %94, label %97

94:                                               ; preds = %91
  %95 = load i32, ptr %8, align 4
  %96 = icmp ule i32 %95, 7
  br label %97

97:                                               ; preds = %94, %91
  %98 = phi i1 [ false, %91 ], [ %96, %94 ]
  %99 = zext i1 %98 to i32
  %100 = call ptr @LLVMConstInt(ptr noundef %79, i64 noundef %80, i32 noundef %99) #7
  %101 = call ptr @LLVMBuildMemCpy(ptr noundef %67, ptr noundef %68, i32 noundef %69, ptr noundef %70, i32 noundef %71, ptr noundef %100)
  store ptr %101, ptr %17, align 8
  br label %102

102:                                              ; preds = %97, %59
  %103 = load ptr, ptr %17, align 8
  ret ptr %103
}