; Function Attrs: nounwind uwtable
define dso_local ptr @llvm_emit_memcpy(ptr noundef %0, ptr noundef %1, i32 noundef %2, ptr noundef %3, i32 noundef %4, i64 noundef %5) local_unnamed_addr #0 {
  %7 = icmp ult i64 %5, 4294967296
  %8 = getelementptr inbounds i8, ptr %0, i64 64
  %9 = load ptr, ptr %8, align 8
  br i1 %7, label %10, label %16

10:                                               ; preds = %6
  %11 = load ptr, ptr @type_uint, align 8
  %12 = tail call fastcc ptr @type_lowering(ptr noundef %11)
  %13 = tail call ptr @llvm_get_type(ptr noundef %0, ptr noundef %12) #10
  %14 = load i32, ptr %12, align 8
  %15 = icmp eq i32 %14, 31
  br i1 %15, label %.sink.split, label %25

16:                                               ; preds = %6
  %17 = load ptr, ptr @type_ulong, align 8
  %18 = tail call fastcc ptr @type_lowering(ptr noundef %17)
  %19 = tail call ptr @llvm_get_type(ptr noundef %0, ptr noundef %18) #10
  %20 = load i32, ptr %18, align 8
  %21 = icmp eq i32 %20, 31
  br i1 %21, label %.sink.split, label %25

.sink.split:                                      ; preds = %16, %10
  %.sink = phi ptr [ %12, %10 ], [ %18, %16 ]
  %.sink40.ph = phi ptr [ %13, %10 ], [ %19, %16 ]
  %22 = getelementptr inbounds i8, ptr %.sink, i64 8
  %23 = load ptr, ptr %22, align 8
  %24 = load i32, ptr %23, align 8
  br label %25

25:                                               ; preds = %.sink.split, %16, %10
  %.0.sink = phi i32 [ %14, %10 ], [ %20, %16 ], [ %24, %.sink.split ]
  %.sink40 = phi ptr [ %13, %10 ], [ %19, %16 ], [ %.sink40.ph, %.sink.split ]
  %26 = add i32 %.0.sink, -3
  %27 = icmp ult i32 %26, 5
  %28 = zext i1 %27 to i32
  %29 = tail call ptr @LLVMConstInt(ptr noundef %.sink40, i64 noundef %5, i32 noundef %28) #10
  %30 = tail call ptr @LLVMBuildMemCpy(ptr noundef %9, ptr noundef %1, i32 noundef %2, ptr noundef %3, i32 noundef %4, ptr noundef %29) #10
  ret ptr %30
}